; Function Attrs: mustprogress uwtable
define noundef zeroext i1 @_ZNK6icu_7514NFSubstitutioneqERKS0_(ptr nocapture noundef nonnull readonly align 8 dereferenceable(32) %this, ptr nocapture noundef nonnull readonly align 8 dereferenceable(32) %rhs) unnamed_addr #2 align 2 {
entry:
  %vtable = load ptr, ptr %this, align 8
  %0 = getelementptr inbounds i8, ptr %vtable, i64 -8
  %1 = load ptr, ptr %0, align 8
  %vtable2 = load ptr, ptr %rhs, align 8
  %2 = getelementptr inbounds i8, ptr %vtable2, i64 -8
  %3 = load ptr, ptr %2, align 8
  %__name.i = getelementptr inbounds i8, ptr %1, i64 8
  %4 = load ptr, ptr %__name.i, align 8
  %__name2.i = getelementptr inbounds i8, ptr %3, i64 8
  %5 = load ptr, ptr %__name2.i, align 8
  %cmp.i = icmp eq ptr %4, %5
  br i1 %cmp.i, label %land.lhs.true, label %if.end.i

if.end.i:                                         ; preds = %entry
  %6 = load i8, ptr %4, align 1
  %cmp4.not.i = icmp eq i8 %6, 42
  br i1 %cmp4.not.i, label %land.end, label %_ZNKSt9type_infoeqERKS_.exit

_ZNKSt9type_infoeqERKS_.exit:                     ; preds = %if.end.i
  %7 = load i8, ptr %5, align 1
  %cmp.i.i = icmp eq i8 %7, 42
  %cond.idx.i.i = zext i1 %cmp.i.i to i64
  %cond.i.i = getelementptr inbounds i8, ptr %5, i64 %cond.idx.i.i
  %call6.i = tail call i32 @strcmp(ptr noundef nonnull dereferenceable(1) %4, ptr noundef nonnull dereferenceable(1) %cond.i.i) #11
  %cmp7.i = icmp eq i32 %call6.i, 0
  br i1 %cmp7.i, label %land.lhs.true, label %land.end

land.lhs.true:                                    ; preds = %entry, %_ZNKSt9type_infoeqERKS_.exit
  %pos = getelementptr inbounds i8, ptr %this, i64 8
  %8 = load i32, ptr %pos, align 8
  %pos3 = getelementptr inbounds i8, ptr %rhs, i64 8
  %9 = load i32, ptr %pos3, align 8
  %cmp = icmp eq i32 %8, %9
  br i1 %cmp, label %land.lhs.true4, label %land.end

land.lhs.true4:                                   ; preds = %land.lhs.true
  %ruleSet = getelementptr inbounds i8, ptr %this, i64 16
  %10 = load ptr, ptr %ruleSet, align 8
  %cmp5 = icmp eq ptr %10, null
  %ruleSet6 = getelementptr inbounds i8, ptr %rhs, i64 16
  %11 = load ptr, ptr %ruleSet6, align 8
  %12 = icmp ne ptr %11, null
  %cmp9 = xor i1 %cmp5, %12
  br i1 %cmp9, label %land.rhs, label %land.end

land.rhs:                                         ; preds = %land.lhs.true4
  %numberFormat = getelementptr inbounds i8, ptr %this, i64 24
  %13 = load ptr, ptr %numberFormat, align 8
  %cmp10 = icmp eq ptr %13, null
  %numberFormat11 = getelementptr inbounds i8, ptr %rhs, i64 24
  %14 = load ptr, ptr %numberFormat11, align 8
  br i1 %cmp10, label %cond.true, label %cond.false

cond.true:                                        ; preds = %land.rhs
  %cmp12 = icmp eq ptr %14, null
  br label %land.end

cond.false:                                       ; preds = %land.rhs
  %vtable15 = load ptr, ptr %13, align 8
  %vfn = getelementptr inbounds i8, ptr %vtable15, i64 24
  %15 = load ptr, ptr %vfn, align 8
  %call16 = tail call noundef zeroext i1 %15(ptr noundef nonnull align 8 dereferenceable(368) %13, ptr noundef nonnull align 8 dereferenceable(322) %14)
  br label %land.end

land.end:                                         ; preds = %if.end.i, %cond.true, %cond.false, %land.lhs.true4, %land.lhs.true, %_ZNKSt9type_infoeqERKS_.exit
  %16 = phi i1 [ false, %land.lhs.true4 ], [ false, %land.lhs.true ], [ false, %_ZNKSt9type_infoeqERKS_.exit ], [ %cmp12, %cond.true ], [ %call16, %cond.false ], [ false, %if.end.i ]
  ret i1 %16
}